target datalayout = "e-m:e-p270:32:32-p271:32:32-p272:64:64-i64:64-i128:128-f80:128-n8:16:32:64-S128"
target triple = "x86_64-pc-linux-gnu"

%struct.client = type { i64, i64, ptr, i8, i8, i8, i8, i32, ptr, ptr, ptr, ptr, ptr, i64, i64, i32, ptr, i32, i32, ptr, i64, ptr, ptr, ptr, ptr, ptr, i32, i32, i64, ptr, i64, ptr, i64, i64, i64, i32, ptr, i64, i64, i32, i32, i32, i32, i64, i64, ptr, i64, i64, i64, i64, i64, i64, i64, i64, [41 x i8], i32, ptr, i32, i32, i64, %struct.multiState, %struct.blockingState, i64, ptr, ptr, ptr, ptr, ptr, ptr, ptr, ptr, ptr, ptr, ptr, ptr, ptr, ptr, i64, ptr, i64, i32, ptr, ptr, ptr, i64, %struct.listNode, i64, i64, i32, i64, ptr }
%struct.multiState = type { ptr, i32, i32, i32, i64, i32 }
%struct.blockingState = type { i32, i64, i32, ptr, i32, i32, i64, ptr, ptr, i64 }
%struct.listNode = type { ptr, ptr, ptr }

; Function Attrs: nounwind uwtable
define internal i32 @addHashFieldToReply(ptr noundef %0, ptr noundef %1, ptr noundef %2, i32 noundef %3) #1 {
  %5 = alloca i32, align 4
  %6 = alloca ptr, align 8
  %7 = alloca ptr, align 8
  %8 = alloca ptr, align 8
  %9 = alloca i32, align 4
  %10 = alloca ptr, align 8
  %11 = alloca i32, align 4
  %12 = alloca i64, align 8
  %13 = alloca i32, align 4
  store ptr %0, ptr %6, align 8, !tbaa !124
  store ptr %1, ptr %7, align 8, !tbaa !15
  store ptr %2, ptr %8, align 8, !tbaa !33
  store i32 %3, ptr %9, align 4, !tbaa !13
  %14 = load ptr, ptr %7, align 8, !tbaa !15
  %15 = icmp eq ptr %14, null
  br i1 %15, label %16, label %18

16:                                               ; preds = %4
  %17 = load ptr, ptr %6, align 8, !tbaa !124
  call void @addReplyNull(ptr noundef %17)
  store i32 1, ptr %5, align 4
  br label %44

18:                                               ; preds = %4
  call void @llvm.lifetime.start.p0(i64 8, ptr %10) #12
  store ptr null, ptr %10, align 8, !tbaa !33
  call void @llvm.lifetime.start.p0(i64 4, ptr %11) #12
  store i32 -1, ptr %11, align 4, !tbaa !13
  call void @llvm.lifetime.start.p0(i64 8, ptr %12) #12
  store i64 9223372036854775807, ptr %12, align 8, !tbaa !37
  call void @llvm.lifetime.start.p0(i64 4, ptr %13) #12
  %19 = load ptr, ptr %6, align 8, !tbaa !124
  %20 = getelementptr inbounds nuw %struct.client, ptr %19, i32 0, i32 8
  %21 = load ptr, ptr %20, align 8, !tbaa !127
  %22 = load ptr, ptr %7, align 8, !tbaa !15
  %23 = load ptr, ptr %8, align 8, !tbaa !33
  %24 = load i32, ptr %9, align 4, !tbaa !13
  %25 = call i32 @hashTypeGetValue(ptr noundef %21, ptr noundef %22, ptr noundef %23, ptr noundef %10, ptr noundef %11, ptr noundef %12, i32 noundef %24, ptr noundef null)
  store i32 %25, ptr %13, align 4, !tbaa !13
  %26 = load i32, ptr %13, align 4, !tbaa !13
  %27 = icmp eq i32 %26, 0
  br i1 %27, label %28, label %40

28:                                               ; preds = %18
  %29 = load ptr, ptr %10, align 8, !tbaa !33
  %30 = icmp ne ptr %29, null
  br i1 %30, label %31, label %36

31:                                               ; preds = %28
  %32 = load ptr, ptr %6, align 8, !tbaa !124
  %33 = load ptr, ptr %10, align 8, !tbaa !33
  %34 = load i32, ptr %11, align 4, !tbaa !13
  %35 = zext i32 %34 to i64
  call void @addReplyBulkCBuffer(ptr noundef %32, ptr noundef %33, i64 noundef %35)
  br label %39

36:                                               ; preds = %28
  %37 = load ptr, ptr %6, align 8, !tbaa !124
  %38 = load i64, ptr %12, align 8, !tbaa !37
  call void @addReplyBulkLongLong(ptr noundef %37, i64 noundef %38)
  br label %39

39:                                               ; preds = %36, %31
  br label %42

40:                                               ; preds = %18
  %41 = load ptr, ptr %6, align 8, !tbaa !124
  call void @addReplyNull(ptr noundef %41)
  br label %42

42:                                               ; preds = %40, %39
  %43 = load i32, ptr %13, align 4, !tbaa !13
  store i32 %43, ptr %5, align 4
  call void @llvm.lifetime.end.p0(i64 4, ptr %13) #12
  call void @llvm.lifetime.end.p0(i64 8, ptr %12) #12
  call void @llvm.lifetime.end.p0(i64 4, ptr %11) #12
  call void @llvm.lifetime.end.p0(i64 8, ptr %10) #12
  br label %44

44:                                               ; preds = %42, %16
  %45 = load i32, ptr %5, align 4
  ret i32 %45
}