; Function Attrs: nounwind uwtable
define internal fastcc range(i32 0, 4) i32 @addHashFieldToReply(ptr noundef %0, ptr noundef captures(address_is_null) %1, ptr noundef %2, i32 noundef range(i32 0, 15) %3) unnamed_addr #1 {
  %5 = alloca ptr, align 8
  %6 = alloca i32, align 4
  %7 = alloca i64, align 8
  %8 = icmp eq ptr %1, null
  br i1 %8, label %9, label %10

9:                                                ; preds = %4
  tail call void @addReplyNull(ptr noundef %0) #16
  br label %24

10:                                               ; preds = %4
  call void @llvm.lifetime.start.p0(i64 8, ptr nonnull %5) #16
  store ptr null, ptr %5, align 8, !tbaa !85
  call void @llvm.lifetime.start.p0(i64 4, ptr nonnull %6) #16
  store i32 -1, ptr %6, align 4, !tbaa !65
  call void @llvm.lifetime.start.p0(i64 8, ptr nonnull %7) #16
  store i64 9223372036854775807, ptr %7, align 8, !tbaa !24
  %11 = getelementptr inbounds nuw i8, ptr %0, i64 32
  %12 = load ptr, ptr %11, align 8, !tbaa !109
  %13 = call i32 @hashTypeGetValue(ptr noundef %12, ptr noundef nonnull %1, ptr noundef %2, ptr noundef nonnull %5, ptr noundef nonnull %6, ptr noundef nonnull %7, i32 noundef %3, ptr noundef null)
  %14 = icmp eq i32 %13, 0
  br i1 %14, label %15, label %22

15:                                               ; preds = %10
  %16 = load ptr, ptr %5, align 8, !tbaa !85
  %.not = icmp eq ptr %16, null
  br i1 %.not, label %20, label %17

17:                                               ; preds = %15
  %18 = load i32, ptr %6, align 4, !tbaa !65
  %19 = zext i32 %18 to i64
  call void @addReplyBulkCBuffer(ptr noundef nonnull %0, ptr noundef nonnull %16, i64 noundef %19) #16
  br label %23

20:                                               ; preds = %15
  %21 = load i64, ptr %7, align 8, !tbaa !24
  call void @addReplyBulkLongLong(ptr noundef nonnull %0, i64 noundef %21) #16
  br label %23

22:                                               ; preds = %10
  call void @addReplyNull(ptr noundef nonnull %0) #16
  br label %23

23:                                               ; preds = %17, %20, %22
  call void @llvm.lifetime.end.p0(i64 8, ptr nonnull %7) #16
  call void @llvm.lifetime.end.p0(i64 4, ptr nonnull %6) #16
  call void @llvm.lifetime.end.p0(i64 8, ptr nonnull %5) #16
  br label %24

24:                                               ; preds = %23, %9
  %.0 = phi i32 [ 1, %9 ], [ %13, %23 ]
  ret i32 %.0
}